target datalayout = "e-m:e-p270:32:32-p271:32:32-p272:64:64-i64:64-i128:128-f80:128-n8:16:32:64-S128"
target triple = "x86_64-pc-linux-gnu"

%struct.load_arg = type { i64, ptr, i64, i64, i64, ptr, ptr, ptr, i64, ptr, i8 }
%struct.st_table = type { i8, i8, i8, i32, ptr, i64, ptr, i64, i64, ptr }
%struct.OnigEncodingTypeST = type { ptr, ptr, i32, i32, ptr, ptr, ptr, ptr, ptr, ptr, ptr, ptr, ptr, ptr, ptr, ptr, ptr, i32, i32 }

@rb_eTypeError = external global i64, align 8
@rb_eArgError = external global i64, align 8
@.str.23 = private unnamed_addr constant [54 x i8] c"long too big for this architecture (size 8, given %d)\00", align 1
@.str.84 = private unnamed_addr constant [35 x i8] c"dump format error for symbol(0x%x)\00", align 1
@.str.85 = private unnamed_addr constant [42 x i8] c"dump format error (symlink with encoding)\00", align 1
@.str.86 = private unnamed_addr constant [35 x i8] c"invalid byte sequence in %s: %+li\0B\00", align 1

; Function Attrs: nounwind sspstrong uwtable
define internal i64 @r_object0(ptr noundef %0, i1 noundef zeroext %1, ptr noundef %2, i64 noundef %3) #0 {
  %5 = alloca ptr, align 8
  %6 = alloca i8, align 1
  %7 = alloca ptr, align 8
  %8 = alloca i64, align 8
  %9 = alloca i32, align 4
  store ptr %0, ptr %5, align 8, !tbaa !33
  %10 = zext i1 %1 to i8
  store i8 %10, ptr %6, align 1, !tbaa !50
  store ptr %2, ptr %7, align 8, !tbaa !85
  store i64 %3, ptr %8, align 8, !tbaa !7
  call void @llvm.lifetime.start.p0(i64 4, ptr %9) #23
  %11 = load ptr, ptr %5, align 8, !tbaa !33
  %12 = call i32 @r_byte(ptr noundef %11)
  store i32 %12, ptr %9, align 4, !tbaa !22
  %13 = load ptr, ptr %5, align 8, !tbaa !33
  %14 = load i8, ptr %6, align 1, !tbaa !50, !range !57, !noundef !58
  %15 = trunc i8 %14 to i1
  %16 = load ptr, ptr %7, align 8, !tbaa !85
  %17 = load i64, ptr %8, align 8, !tbaa !7
  %18 = load i32, ptr %9, align 4, !tbaa !22
  %19 = call i64 @r_object_for(ptr noundef %13, i1 noundef zeroext %15, ptr noundef %16, i64 noundef %17, i32 noundef %18)
  call void @llvm.lifetime.end.p0(i64 4, ptr %9) #23
  ret i64 %19
}

; Function Attrs: noreturn nounwind sspstrong uwtable
define internal void @long_toobig(i32 noundef %0) #11 {
  %2 = alloca i32, align 4
  store i32 %0, ptr %2, align 4, !tbaa !22
  %3 = load i64, ptr @rb_eTypeError, align 8, !tbaa !7
  %4 = load i32, ptr %2, align 4, !tbaa !22
  call void (i64, ptr, ...) @rb_raise(i64 noundef %3, ptr noundef @.str.23, i32 noundef %4) #24
  unreachable
}

; Function Attrs: inlinehint nounwind sspstrong uwtable
define internal ptr @rb_enc_name(ptr noundef %0) #5 {
  %2 = alloca ptr, align 8
  store ptr %0, ptr %2, align 8, !tbaa !101
  %3 = load ptr, ptr %2, align 8, !tbaa !101
  %4 = getelementptr inbounds nuw %struct.OnigEncodingTypeST, ptr %3, i32 0, i32 1
  %5 = load ptr, ptr %4, align 8, !tbaa !122
  ret ptr %5
}

; Function Attrs: inlinehint nounwind sspstrong uwtable
define internal zeroext i1 @is_broken_string(i64 noundef %0) #5 {
  %2 = alloca i64, align 8
  store i64 %0, ptr %2, align 8, !tbaa !7
  %3 = load i64, ptr %2, align 8, !tbaa !7
  %4 = call i32 @rb_enc_str_coderange(i64 noundef %3)
  %5 = icmp eq i32 %4, 3145728
  ret i1 %5
}

; Function Attrs: nounwind sspstrong uwtable
define internal i64 @r_object(ptr noundef %0) #0 {
  %2 = alloca ptr, align 8
  store ptr %0, ptr %2, align 8, !tbaa !33
  %3 = load ptr, ptr %2, align 8, !tbaa !33
  %4 = call i64 @r_object0(ptr noundef %3, i1 noundef zeroext false, ptr noundef null, i64 noundef 4)
  ret i64 %4
}

; Function Attrs: nounwind sspstrong uwtable
define internal i64 @r_symbol(ptr noundef %0) #0 {
  %2 = alloca i64, align 8
  %3 = alloca ptr, align 8
  %4 = alloca i32, align 4
  %5 = alloca i32, align 4
  %6 = alloca i32, align 4
  store ptr %0, ptr %3, align 8, !tbaa !33
  call void @llvm.lifetime.start.p0(i64 4, ptr %4) #23
  call void @llvm.lifetime.start.p0(i64 4, ptr %5) #23
  store i32 0, ptr %5, align 4, !tbaa !22
  br label %7

7:                                                ; preds = %13, %1
  %8 = load ptr, ptr %3, align 8, !tbaa !33
  %9 = call i32 @r_byte(ptr noundef %8)
  store i32 %9, ptr %4, align 4, !tbaa !22
  switch i32 %9, label %10 [
    i32 73, label %13
    i32 58, label %14
    i32 59, label %18
  ]

10:                                               ; preds = %7
  %11 = load i64, ptr @rb_eArgError, align 8, !tbaa !7
  %12 = load i32, ptr %4, align 4, !tbaa !22
  call void (i64, ptr, ...) @rb_raise(i64 noundef %11, ptr noundef @.str.84, i32 noundef %12) #24
  unreachable

13:                                               ; preds = %7
  store i32 1, ptr %5, align 4, !tbaa !22
  br label %7

14:                                               ; preds = %7
  %15 = load ptr, ptr %3, align 8, !tbaa !33
  %16 = load i32, ptr %5, align 4, !tbaa !22
  %17 = call i64 @r_symreal(ptr noundef %15, i32 noundef %16)
  store i64 %17, ptr %2, align 8
  store i32 1, ptr %6, align 4
  br label %26

18:                                               ; preds = %7
  %19 = load i32, ptr %5, align 4, !tbaa !22
  %20 = icmp ne i32 %19, 0
  br i1 %20, label %21, label %23

21:                                               ; preds = %18
  %22 = load i64, ptr @rb_eArgError, align 8, !tbaa !7
  call void (i64, ptr, ...) @rb_raise(i64 noundef %22, ptr noundef @.str.85) #24
  unreachable

23:                                               ; preds = %18
  %24 = load ptr, ptr %3, align 8, !tbaa !33
  %25 = call i64 @r_symlink(ptr noundef %24)
  store i64 %25, ptr %2, align 8
  store i32 1, ptr %6, align 4
  br label %26

26:                                               ; preds = %23, %14
  call void @llvm.lifetime.end.p0(i64 4, ptr %5) #23
  call void @llvm.lifetime.end.p0(i64 4, ptr %4) #23
  %27 = load i64, ptr %2, align 8
  ret i64 %27
}

; Function Attrs: nounwind sspstrong uwtable
define internal i64 @r_long(ptr noundef %0) #0 {
  %2 = alloca i64, align 8
  %3 = alloca ptr, align 8
  %4 = alloca i64, align 8
  %5 = alloca i32, align 4
  %6 = alloca i64, align 8
  %7 = alloca i32, align 4
  store ptr %0, ptr %3, align 8, !tbaa !33
  call void @llvm.lifetime.start.p0(i64 8, ptr %4) #23
  call void @llvm.lifetime.start.p0(i64 4, ptr %5) #23
  %8 = load ptr, ptr %3, align 8, !tbaa !33
  %9 = call i32 @r_byte(ptr noundef %8)
  %10 = trunc i32 %9 to i8
  %11 = sext i8 %10 to i32
  store i32 %11, ptr %5, align 4, !tbaa !22
  call void @llvm.lifetime.start.p0(i64 8, ptr %6) #23
  %12 = load i32, ptr %5, align 4, !tbaa !22
  %13 = icmp eq i32 %12, 0
  br i1 %13, label %14, label %15

14:                                               ; preds = %1
  store i64 0, ptr %2, align 8
  store i32 1, ptr %7, align 4
  br label %96

15:                                               ; preds = %1
  %16 = load i32, ptr %5, align 4, !tbaa !22
  %17 = icmp sgt i32 %16, 0
  br i1 %17, label %18, label %52

18:                                               ; preds = %15
  %19 = load i32, ptr %5, align 4, !tbaa !22
  %20 = icmp slt i32 4, %19
  br i1 %20, label %21, label %28

21:                                               ; preds = %18
  %22 = load i32, ptr %5, align 4, !tbaa !22
  %23 = icmp slt i32 %22, 128
  br i1 %23, label %24, label %28

24:                                               ; preds = %21
  %25 = load i32, ptr %5, align 4, !tbaa !22
  %26 = sub i32 %25, 5
  %27 = sext i32 %26 to i64
  store i64 %27, ptr %2, align 8
  store i32 1, ptr %7, align 4
  br label %96

28:                                               ; preds = %21, %18
  %29 = load i32, ptr %5, align 4, !tbaa !22
  %30 = icmp sgt i32 %29, 8
  br i1 %30, label %31, label %33

31:                                               ; preds = %28
  %32 = load i32, ptr %5, align 4, !tbaa !22
  call void @long_toobig(i32 noundef %32) #24
  unreachable

33:                                               ; preds = %28
  store i64 0, ptr %4, align 8, !tbaa !7
  store i64 0, ptr %6, align 8, !tbaa !7
  br label %34

34:                                               ; preds = %48, %33
  %35 = load i64, ptr %6, align 8, !tbaa !7
  %36 = load i32, ptr %5, align 4, !tbaa !22
  %37 = sext i32 %36 to i64
  %38 = icmp slt i64 %35, %37
  br i1 %38, label %39, label %51

39:                                               ; preds = %34
  %40 = load ptr, ptr %3, align 8, !tbaa !33
  %41 = call i32 @r_byte(ptr noundef %40)
  %42 = sext i32 %41 to i64
  %43 = load i64, ptr %6, align 8, !tbaa !7
  %44 = mul i64 8, %43
  %45 = shl i64 %42, %44
  %46 = load i64, ptr %4, align 8, !tbaa !7
  %47 = or i64 %46, %45
  store i64 %47, ptr %4, align 8, !tbaa !7
  br label %48

48:                                               ; preds = %39
  %49 = load i64, ptr %6, align 8, !tbaa !7
  %50 = add i64 %49, 1
  store i64 %50, ptr %6, align 8, !tbaa !7
  br label %34, !llvm.loop !35

51:                                               ; preds = %34
  br label %94

52:                                               ; preds = %15
  %53 = load i32, ptr %5, align 4, !tbaa !22
  %54 = icmp slt i32 -129, %53
  br i1 %54, label %55, label %62

55:                                               ; preds = %52
  %56 = load i32, ptr %5, align 4, !tbaa !22
  %57 = icmp slt i32 %56, -4
  br i1 %57, label %58, label %62

58:                                               ; preds = %55
  %59 = load i32, ptr %5, align 4, !tbaa !22
  %60 = add i32 %59, 5
  %61 = sext i32 %60 to i64
  store i64 %61, ptr %2, align 8
  store i32 1, ptr %7, align 4
  br label %96

62:                                               ; preds = %55, %52
  %63 = load i32, ptr %5, align 4, !tbaa !22
  %64 = sub i32 0, %63
  store i32 %64, ptr %5, align 4, !tbaa !22
  %65 = load i32, ptr %5, align 4, !tbaa !22
  %66 = icmp sgt i32 %65, 8
  br i1 %66, label %67, label %69

67:                                               ; preds = %62
  %68 = load i32, ptr %5, align 4, !tbaa !22
  call void @long_toobig(i32 noundef %68) #24
  unreachable

69:                                               ; preds = %62
  store i64 -1, ptr %4, align 8, !tbaa !7
  store i64 0, ptr %6, align 8, !tbaa !7
  br label %70

70:                                               ; preds = %90, %69
  %71 = load i64, ptr %6, align 8, !tbaa !7
  %72 = load i32, ptr %5, align 4, !tbaa !22
  %73 = sext i32 %72 to i64
  %74 = icmp slt i64 %71, %73
  br i1 %74, label %75, label %93

75:                                               ; preds = %70
  %76 = load i64, ptr %6, align 8, !tbaa !7
  %77 = mul i64 8, %76
  %78 = shl i64 255, %77
  %79 = xor i64 %78, -1
  %80 = load i64, ptr %4, align 8, !tbaa !7
  %81 = and i64 %80, %79
  store i64 %81, ptr %4, align 8, !tbaa !7
  %82 = load ptr, ptr %3, align 8, !tbaa !33
  %83 = call i32 @r_byte(ptr noundef %82)
  %84 = sext i32 %83 to i64
  %85 = load i64, ptr %6, align 8, !tbaa !7
  %86 = mul i64 8, %85
  %87 = shl i64 %84, %86
  %88 = load i64, ptr %4, align 8, !tbaa !7
  %89 = or i64 %88, %87
  store i64 %89, ptr %4, align 8, !tbaa !7
  br label %90

90:                                               ; preds = %75
  %91 = load i64, ptr %6, align 8, !tbaa !7
  %92 = add i64 %91, 1
  store i64 %92, ptr %6, align 8, !tbaa !7
  br label %70, !llvm.loop !36

93:                                               ; preds = %70
  br label %94

94:                                               ; preds = %93, %51
  %95 = load i64, ptr %4, align 8, !tbaa !7
  store i64 %95, ptr %2, align 8
  store i32 1, ptr %7, align 4
  br label %96

96:                                               ; preds = %94, %58, %24, %14
  call void @llvm.lifetime.end.p0(i64 8, ptr %6) #23
  call void @llvm.lifetime.end.p0(i64 4, ptr %5) #23
  call void @llvm.lifetime.end.p0(i64 8, ptr %4) #23
  %97 = load i64, ptr %2, align 8
  ret i64 %97
}

; Function Attrs: nounwind sspstrong uwtable
define internal i64 @r_symreal(ptr noundef %0, i32 noundef %1) #0 {
  %3 = alloca ptr, align 8
  %4 = alloca i32, align 4
  %5 = alloca i64, align 8
  %6 = alloca i64, align 8
  %7 = alloca i32, align 4
  %8 = alloca i64, align 8
  %9 = alloca i64, align 8
  store ptr %0, ptr %3, align 8, !tbaa !33
  store i32 %1, ptr %4, align 4, !tbaa !22
  call void @llvm.lifetime.start.p0(i64 8, ptr %5) #23
  %10 = load ptr, ptr %3, align 8, !tbaa !33
  %11 = call i64 @r_long(ptr noundef %10)
  %12 = load ptr, ptr %3, align 8, !tbaa !33
  %13 = call i64 @r_bytes0(i64 noundef %11, ptr noundef %12)
  store i64 %13, ptr %5, align 8, !tbaa !7
  call void @llvm.lifetime.start.p0(i64 8, ptr %6) #23
  call void @llvm.lifetime.start.p0(i64 4, ptr %7) #23
  store i32 -1, ptr %7, align 4, !tbaa !22
  call void @llvm.lifetime.start.p0(i64 8, ptr %8) #23
  %14 = load ptr, ptr %3, align 8, !tbaa !33
  %15 = getelementptr inbounds nuw %struct.load_arg, ptr %14, i32 0, i32 5
  %16 = load ptr, ptr %15, align 8, !tbaa !51
  %17 = getelementptr inbounds nuw %struct.st_table, ptr %16, i32 0, i32 5
  %18 = load i64, ptr %17, align 8, !tbaa !95
  store i64 %18, ptr %8, align 8, !tbaa !7
  %19 = load i64, ptr %5, align 8, !tbaa !7
  %20 = call i32 @rb_enc_str_asciionly_p(i64 noundef %19)
  %21 = icmp ne i32 %20, 0
  br i1 %21, label %22, label %25

22:                                               ; preds = %2
  %23 = load i64, ptr %5, align 8, !tbaa !7
  %24 = call i64 @rb_enc_associate_index(i64 noundef %23, i32 noundef 2)
  br label %25

25:                                               ; preds = %22, %2
  %26 = load ptr, ptr %3, align 8, !tbaa !33
  %27 = getelementptr inbounds nuw %struct.load_arg, ptr %26, i32 0, i32 5
  %28 = load ptr, ptr %27, align 8, !tbaa !51
  %29 = load i64, ptr %8, align 8, !tbaa !7
  %30 = load i64, ptr %5, align 8, !tbaa !7
  %31 = call i32 @rb_st_insert(ptr noundef %28, i64 noundef %29, i64 noundef %30)
  %32 = load i32, ptr %4, align 4, !tbaa !22
  %33 = icmp ne i32 %32, 0
  br i1 %33, label %34, label %49

34:                                               ; preds = %25
  call void @llvm.lifetime.start.p0(i64 8, ptr %9) #23
  %35 = load ptr, ptr %3, align 8, !tbaa !33
  %36 = call i64 @r_long(ptr noundef %35)
  store i64 %36, ptr %9, align 8, !tbaa !7
  br label %37

37:                                               ; preds = %41, %34
  %38 = load i64, ptr %9, align 8, !tbaa !7
  %39 = add i64 %38, -1
  store i64 %39, ptr %9, align 8, !tbaa !7
  %40 = icmp sgt i64 %38, 0
  br i1 %40, label %41, label %48

41:                                               ; preds = %37
  %42 = load ptr, ptr %3, align 8, !tbaa !33
  %43 = call i64 @r_symbol(ptr noundef %42)
  store i64 %43, ptr %6, align 8, !tbaa !7
  %44 = load i64, ptr %6, align 8, !tbaa !7
  %45 = load ptr, ptr %3, align 8, !tbaa !33
  %46 = call i64 @r_object(ptr noundef %45)
  %47 = call i32 @sym2encidx(i64 noundef %44, i64 noundef %46)
  store i32 %47, ptr %7, align 4, !tbaa !22
  br label %37, !llvm.loop !145

48:                                               ; preds = %37
  call void @llvm.lifetime.end.p0(i64 8, ptr %9) #23
  br label %49

49:                                               ; preds = %48, %25
  %50 = load i32, ptr %7, align 4, !tbaa !22
  %51 = icmp sgt i32 %50, 0
  br i1 %51, label %52, label %65

52:                                               ; preds = %49
  %53 = load i64, ptr %5, align 8, !tbaa !7
  %54 = load i32, ptr %7, align 4, !tbaa !22
  %55 = call i64 @rb_enc_associate_index(i64 noundef %53, i32 noundef %54)
  %56 = load i64, ptr %5, align 8, !tbaa !7
  %57 = call zeroext i1 @is_broken_string(i64 noundef %56)
  br i1 %57, label %58, label %64

58:                                               ; preds = %52
  %59 = load i64, ptr @rb_eArgError, align 8, !tbaa !7
  %60 = load i32, ptr %7, align 4, !tbaa !22
  %61 = call ptr @rb_enc_from_index(i32 noundef %60)
  %62 = call ptr @rb_enc_name(ptr noundef %61)
  %63 = load i64, ptr %5, align 8, !tbaa !7
  call void (i64, ptr, ...) @rb_raise(i64 noundef %59, ptr noundef @.str.86, ptr noundef %62, i64 noundef %63) #24
  unreachable

64:                                               ; preds = %52
  br label %65

65:                                               ; preds = %64, %49
  %66 = load i64, ptr %5, align 8, !tbaa !7
  call void @llvm.lifetime.end.p0(i64 8, ptr %8) #23
  call void @llvm.lifetime.end.p0(i64 4, ptr %7) #23
  call void @llvm.lifetime.end.p0(i64 8, ptr %6) #23
  call void @llvm.lifetime.end.p0(i64 8, ptr %5) #23
  ret i64 %66
}