; Function Attrs: nounwind sspstrong uwtable
define internal fastcc noundef i64 @r_symreal(ptr noundef %0, i32 noundef %1) unnamed_addr #0 {
  %3 = tail call fastcc i32 @r_byte(ptr noundef %0)
  %sext.i = shl nuw i32 %3, 24
  %4 = ashr exact i32 %sext.i, 24
  %5 = icmp eq i32 %3, 0
  br i1 %5, label %r_long.exit, label %6

6:                                                ; preds = %2
  %7 = icmp sgt i32 %4, 0
  br i1 %7, label %8, label %21

8:                                                ; preds = %6
  %9 = icmp samesign ugt i32 %4, 4
  br i1 %9, label %11, label %.preheader.i

.preheader.i:                                     ; preds = %8
  %10 = zext nneg i32 %4 to i64
  br label %14

11:                                               ; preds = %8
  %12 = add nsw i32 %4, -5
  %13 = zext nneg i32 %12 to i64
  br label %r_long.exit

14:                                               ; preds = %14, %.preheader.i
  %.042.i = phi i64 [ 0, %.preheader.i ], [ %20, %14 ]
  %.03241.i = phi i64 [ 0, %.preheader.i ], [ %19, %14 ]
  %15 = tail call fastcc i32 @r_byte(ptr noundef %0)
  %16 = zext nneg i32 %15 to i64
  %17 = shl nuw nsw i64 %.042.i, 3
  %18 = shl i64 %16, %17
  %19 = or i64 %18, %.03241.i
  %20 = add nuw nsw i64 %.042.i, 1
  %exitcond45.not.i = icmp eq i64 %20, %10
  br i1 %exitcond45.not.i, label %r_long.exit, label %14, !llvm.loop !25

21:                                               ; preds = %6
  %22 = icmp slt i32 %4, -4
  br i1 %22, label %23, label %26

23:                                               ; preds = %21
  %24 = add nsw i32 %4, 5
  %25 = sext i32 %24 to i64
  br label %r_long.exit

26:                                               ; preds = %21
  %27 = sub nsw i32 0, %4
  %28 = tail call i32 @llvm.umax.i32(i32 %27, i32 1)
  %umax.i = zext nneg i32 %28 to i64
  br label %29

29:                                               ; preds = %29, %26
  %.140.i = phi i64 [ 0, %26 ], [ %38, %29 ]
  %.239.i = phi i64 [ -1, %26 ], [ %37, %29 ]
  %30 = shl nuw nsw i64 %.140.i, 3
  %31 = shl i64 255, %30
  %32 = xor i64 %31, -1
  %33 = and i64 %.239.i, %32
  %34 = tail call fastcc i32 @r_byte(ptr noundef %0)
  %35 = zext nneg i32 %34 to i64
  %36 = shl i64 %35, %30
  %37 = or i64 %36, %33
  %38 = add nuw nsw i64 %.140.i, 1
  %exitcond.not.i = icmp eq i64 %38, %umax.i
  br i1 %exitcond.not.i, label %r_long.exit, label %29, !llvm.loop !26

r_long.exit:                                      ; preds = %29, %14, %2, %11, %23
  %.034.i = phi i64 [ %13, %11 ], [ %25, %23 ], [ 0, %2 ], [ %19, %14 ], [ %37, %29 ]
  %39 = tail call fastcc i64 @r_bytes0(i64 noundef %.034.i, ptr noundef %0)
  %40 = getelementptr inbounds nuw i8, ptr %0, i64 40
  %41 = load ptr, ptr %40, align 8, !tbaa !47
  %42 = getelementptr inbounds nuw i8, ptr %41, i64 16
  %43 = load i64, ptr %42, align 8, !tbaa !110
  %44 = tail call i32 @rb_enc_str_asciionly_p(i64 noundef %39) #22
  %.not = icmp eq i32 %44, 0
  br i1 %.not, label %47, label %45

45:                                               ; preds = %r_long.exit
  %46 = tail call i64 @rb_enc_associate_index(i64 noundef %39, i32 noundef 2) #22
  br label %47

47:                                               ; preds = %45, %r_long.exit
  %48 = load ptr, ptr %40, align 8, !tbaa !47
  %49 = tail call i32 @rb_st_insert(ptr noundef %48, i64 noundef %43, i64 noundef %39) #22
  %.not21 = icmp eq i32 %1, 0
  br i1 %.not21, label %.thread, label %50

50:                                               ; preds = %47
  %51 = tail call fastcc i32 @r_byte(ptr noundef nonnull %0)
  %sext.i22 = shl nuw i32 %51, 24
  %52 = ashr exact i32 %sext.i22, 24
  %53 = icmp eq i32 %51, 0
  br i1 %53, label %.thread, label %54

54:                                               ; preds = %50
  %55 = icmp sgt i32 %52, 0
  br i1 %55, label %56, label %69

56:                                               ; preds = %54
  %57 = icmp samesign ugt i32 %52, 4
  br i1 %57, label %59, label %.preheader.i28

.preheader.i28:                                   ; preds = %56
  %58 = zext nneg i32 %52 to i64
  br label %62

59:                                               ; preds = %56
  %60 = add nsw i32 %52, -5
  %61 = zext nneg i32 %60 to i64
  br label %r_long.exit32

62:                                               ; preds = %62, %.preheader.i28
  %.042.i29 = phi i64 [ 0, %.preheader.i28 ], [ %68, %62 ]
  %.03241.i30 = phi i64 [ 0, %.preheader.i28 ], [ %67, %62 ]
  %63 = tail call fastcc i32 @r_byte(ptr noundef nonnull %0)
  %64 = zext nneg i32 %63 to i64
  %65 = shl nuw nsw i64 %.042.i29, 3
  %66 = shl i64 %64, %65
  %67 = or i64 %66, %.03241.i30
  %68 = add nuw nsw i64 %.042.i29, 1
  %exitcond45.not.i31 = icmp eq i64 %68, %58
  br i1 %exitcond45.not.i31, label %r_long.exit32, label %62, !llvm.loop !25

69:                                               ; preds = %54
  %70 = icmp slt i32 %52, -4
  br i1 %70, label %.thread, label %71

71:                                               ; preds = %69
  %72 = sub nsw i32 0, %52
  %73 = tail call i32 @llvm.umax.i32(i32 %72, i32 1)
  %umax.i23 = zext nneg i32 %73 to i64
  br label %74

74:                                               ; preds = %74, %71
  %.140.i24 = phi i64 [ 0, %71 ], [ %83, %74 ]
  %.239.i25 = phi i64 [ -1, %71 ], [ %82, %74 ]
  %75 = shl nuw nsw i64 %.140.i24, 3
  %76 = shl i64 255, %75
  %77 = xor i64 %76, -1
  %78 = and i64 %.239.i25, %77
  %79 = tail call fastcc i32 @r_byte(ptr noundef nonnull %0)
  %80 = zext nneg i32 %79 to i64
  %81 = shl i64 %80, %75
  %82 = or i64 %81, %78
  %83 = add nuw nsw i64 %.140.i24, 1
  %exitcond.not.i26 = icmp eq i64 %83, %umax.i23
  br i1 %exitcond.not.i26, label %r_long.exit32, label %74, !llvm.loop !26

r_long.exit32:                                    ; preds = %74, %62, %59
  %.034.i27 = phi i64 [ %61, %59 ], [ %67, %62 ], [ %82, %74 ]
  %84 = icmp sgt i64 %.034.i27, 0
  br i1 %84, label %.lr.ph, label %.thread

.lr.ph:                                           ; preds = %r_long.exit32, %r_symbol.exit
  %.048 = phi i64 [ %85, %r_symbol.exit ], [ %.034.i27, %r_long.exit32 ]
  %85 = add nsw i64 %.048, -1
  br label %86

86:                                               ; preds = %86, %.lr.ph
  %.not.i = phi i1 [ true, %.lr.ph ], [ false, %86 ]
  %.0.i = phi i32 [ 0, %.lr.ph ], [ 1, %86 ]
  %87 = tail call fastcc i32 @r_byte(ptr noundef nonnull %0)
  %trunc.i = trunc nuw i32 %87 to i8
  switch i8 %trunc.i, label %88 [
    i8 73, label %86
    i8 58, label %90
    i8 59, label %92
  ]

88:                                               ; preds = %86
  %89 = load i64, ptr @rb_eArgError, align 8, !tbaa !7
  tail call void (i64, ptr, ...) @rb_raise(i64 noundef %89, ptr noundef nonnull @.str.84, i32 noundef %87) #23
  unreachable

90:                                               ; preds = %86
  %91 = tail call fastcc i64 @r_symreal(ptr noundef nonnull %0, i32 noundef %.0.i)
  br label %r_symbol.exit

92:                                               ; preds = %86
  br i1 %.not.i, label %95, label %93

93:                                               ; preds = %92
  %94 = load i64, ptr @rb_eArgError, align 8, !tbaa !7
  tail call void (i64, ptr, ...) @rb_raise(i64 noundef %94, ptr noundef nonnull @.str.85) #23
  unreachable

95:                                               ; preds = %92
  %96 = tail call fastcc i64 @r_symlink(ptr noundef nonnull %0)
  br label %r_symbol.exit

r_symbol.exit:                                    ; preds = %90, %95
  %.06.i = phi i64 [ %96, %95 ], [ %91, %90 ]
  %97 = tail call fastcc i32 @r_byte(ptr noundef nonnull %0)
  %98 = tail call fastcc i64 @r_object_for(ptr noundef nonnull %0, i1 noundef zeroext false, ptr noundef null, i64 noundef 4, i32 noundef %97)
  %99 = tail call fastcc i32 @sym2encidx(i64 noundef %.06.i, i64 noundef %98)
  %100 = icmp sgt i64 %.048, 1
  br i1 %100, label %.lr.ph, label %._crit_edge, !llvm.loop !176

._crit_edge:                                      ; preds = %r_symbol.exit
  %101 = icmp sgt i32 %99, 0
  br i1 %101, label %102, label %.thread

102:                                              ; preds = %._crit_edge
  %103 = tail call i64 @rb_enc_associate_index(i64 noundef %39, i32 noundef %99) #22
  %104 = tail call i32 @rb_enc_str_coderange(i64 noundef %39) #22
  %105 = icmp eq i32 %104, 3145728
  br i1 %105, label %106, label %.thread

106:                                              ; preds = %102
  %107 = load i64, ptr @rb_eArgError, align 8, !tbaa !7
  %108 = tail call ptr @rb_enc_from_index(i32 noundef %99) #22
  %109 = getelementptr i8, ptr %108, i64 8
  %.val = load ptr, ptr %109, align 8, !tbaa !119
  tail call void (i64, ptr, ...) @rb_raise(i64 noundef %107, ptr noundef nonnull @.str.86, ptr noundef %.val, i64 noundef %39) #23
  unreachable

.thread:                                          ; preds = %69, %50, %r_long.exit32, %47, %102, %._crit_edge
  ret i64 %39
}